; ModuleID = '31/1670.c'
source_filename = "31/1670.c"
target datalayout = "e-m:e-p270:32:32-p271:32:32-p272:64:64-i64:64-f80:128-n8:16:32:64-S128"
target triple = "x86_64-pc-linux-gnu"

%struct.student = type { [100 x i8], [100 x i8], i8, i32, float, [100 x i8], %struct.student*, %struct.student* }

@num = dso_local global i32 0, align 4
@.str = private unnamed_addr constant [18 x i8] c"%s %s %c %d %f %s\00", align 1
@.str.1 = private unnamed_addr constant [4 x i8] c"end\00", align 1
@.str.2 = private unnamed_addr constant [3 x i8] c"%s\00", align 1
@.str.3 = private unnamed_addr constant [15 x i8] c"%s %c %d %f %s\00", align 1
@.str.4 = private unnamed_addr constant [19 x i8] c"%s %s %c %d %g %s\0A\00", align 1

; Function Attrs: noinline nounwind uwtable
define dso_local void @main() #0 {
  %1 = alloca i32, align 4
  %2 = alloca i32, align 4
  %3 = alloca i32, align 4
  %4 = alloca i32, align 4
  %5 = alloca i32, align 4
  %6 = alloca %struct.student*, align 8
  %7 = alloca %struct.student*, align 8
  %8 = alloca %struct.student*, align 8
  %9 = alloca %struct.student*, align 8
  %10 = alloca %struct.student*, align 8
  %11 = call noalias i8* @malloc(i64 328) #4
  %12 = bitcast i8* %11 to %struct.student*
  store %struct.student* %12, %struct.student** %7, align 8
  store %struct.student* %12, %struct.student** %6, align 8
  %13 = load %struct.student*, %struct.student** %6, align 8
  %14 = getelementptr inbounds %struct.student, %struct.student* %13, i32 0, i32 0
  %15 = getelementptr inbounds [100 x i8], [100 x i8]* %14, i64 0, i64 0
  %16 = load %struct.student*, %struct.student** %6, align 8
  %17 = getelementptr inbounds %struct.student, %struct.student* %16, i32 0, i32 1
  %18 = getelementptr inbounds [100 x i8], [100 x i8]* %17, i64 0, i64 0
  %19 = load %struct.student*, %struct.student** %6, align 8
  %20 = getelementptr inbounds %struct.student, %struct.student* %19, i32 0, i32 2
  %21 = load %struct.student*, %struct.student** %6, align 8
  %22 = getelementptr inbounds %struct.student, %struct.student* %21, i32 0, i32 3
  %23 = load %struct.student*, %struct.student** %6, align 8
  %24 = getelementptr inbounds %struct.student, %struct.student* %23, i32 0, i32 4
  %25 = load %struct.student*, %struct.student** %6, align 8
  %26 = getelementptr inbounds %struct.student, %struct.student* %25, i32 0, i32 5
  %27 = getelementptr inbounds [100 x i8], [100 x i8]* %26, i64 0, i64 0
  %28 = call i32 (i8*, ...) @__isoc99_scanf(i8* getelementptr inbounds ([18 x i8], [18 x i8]* @.str, i64 0, i64 0), i8* %15, i8* %18, i8* %20, i32* %22, float* %24, i8* %27)
  %29 = load %struct.student*, %struct.student** %6, align 8
  %30 = getelementptr inbounds %struct.student, %struct.student* %29, i32 0, i32 7
  store %struct.student* null, %struct.student** %30, align 8
  br label %31

31:                                               ; preds = %62, %0
  %32 = load %struct.student*, %struct.student** %7, align 8
  %33 = getelementptr inbounds %struct.student, %struct.student* %32, i32 0, i32 0
  %34 = getelementptr inbounds [100 x i8], [100 x i8]* %33, i64 0, i64 0
  %35 = call i32 @strcmp(i8* %34, i8* getelementptr inbounds ([4 x i8], [4 x i8]* @.str.1, i64 0, i64 0)) #5
  %36 = icmp ne i32 %35, 0
  br i1 %36, label %37, label %85

37:                                               ; preds = %31
  %38 = call noalias i8* @malloc(i64 328) #4
  %39 = bitcast i8* %38 to %struct.student*
  store %struct.student* %39, %struct.student** %6, align 8
  %40 = load %struct.student*, %struct.student** %6, align 8
  %41 = getelementptr inbounds %struct.student, %struct.student* %40, i32 0, i32 0
  %42 = getelementptr inbounds [100 x i8], [100 x i8]* %41, i64 0, i64 0
  %43 = call i32 (i8*, ...) @__isoc99_scanf(i8* getelementptr inbounds ([3 x i8], [3 x i8]* @.str.2, i64 0, i64 0), i8* %42)
  %44 = load %struct.student*, %struct.student** %6, align 8
  %45 = getelementptr inbounds %struct.student, %struct.student* %44, i32 0, i32 0
  %46 = getelementptr inbounds [100 x i8], [100 x i8]* %45, i64 0, i64 0
  %47 = call i32 @strcmp(i8* %46, i8* getelementptr inbounds ([4 x i8], [4 x i8]* @.str.1, i64 0, i64 0)) #5
  %48 = icmp eq i32 %47, 0
  br i1 %48, label %49, label %62

49:                                               ; preds = %37
  %50 = load %struct.student*, %struct.student** %7, align 8
  store %struct.student* %50, %struct.student** %10, align 8
  %51 = load %struct.student*, %struct.student** %7, align 8
  %52 = load %struct.student*, %struct.student** %6, align 8
  %53 = getelementptr inbounds %struct.student, %struct.student* %52, i32 0, i32 7
  store %struct.student* %51, %struct.student** %53, align 8
  %54 = load %struct.student*, %struct.student** %6, align 8
  %55 = load %struct.student*, %struct.student** %7, align 8
  %56 = getelementptr inbounds %struct.student, %struct.student* %55, i32 0, i32 6
  store %struct.student* %54, %struct.student** %56, align 8
  %57 = load %struct.student*, %struct.student** %6, align 8
  store %struct.student* %57, %struct.student** %7, align 8
  %58 = load i32, i32* @num, align 4
  %59 = add nsw i32 %58, 1
  store i32 %59, i32* @num, align 4
  %60 = load %struct.student*, %struct.student** %6, align 8
  %61 = getelementptr inbounds %struct.student, %struct.student* %60, i32 0, i32 6
  store %struct.student* null, %struct.student** %61, align 8
  br label %85

62:                                               ; preds = %37
  %63 = load %struct.student*, %struct.student** %6, align 8
  %64 = getelementptr inbounds %struct.student, %struct.student* %63, i32 0, i32 1
  %65 = getelementptr inbounds [100 x i8], [100 x i8]* %64, i64 0, i64 0
  %66 = load %struct.student*, %struct.student** %6, align 8
  %67 = getelementptr inbounds %struct.student, %struct.student* %66, i32 0, i32 2
  %68 = load %struct.student*, %struct.student** %6, align 8
  %69 = getelementptr inbounds %struct.student, %struct.student* %68, i32 0, i32 3
  %70 = load %struct.student*, %struct.student** %6, align 8
  %71 = getelementptr inbounds %struct.student, %struct.student* %70, i32 0, i32 4
  %72 = load %struct.student*, %struct.student** %6, align 8
  %73 = getelementptr inbounds %struct.student, %struct.student* %72, i32 0, i32 5
  %74 = getelementptr inbounds [100 x i8], [100 x i8]* %73, i64 0, i64 0
  %75 = call i32 (i8*, ...) @__isoc99_scanf(i8* getelementptr inbounds ([15 x i8], [15 x i8]* @.str.3, i64 0, i64 0), i8* %65, i8* %67, i32* %69, float* %71, i8* %74)
  %76 = load %struct.student*, %struct.student** %7, align 8
  %77 = load %struct.student*, %struct.student** %6, align 8
  %78 = getelementptr inbounds %struct.student, %struct.student* %77, i32 0, i32 7
  store %struct.student* %76, %struct.student** %78, align 8
  %79 = load %struct.student*, %struct.student** %6, align 8
  %80 = load %struct.student*, %struct.student** %7, align 8
  %81 = getelementptr inbounds %struct.student, %struct.student* %80, i32 0, i32 6
  store %struct.student* %79, %struct.student** %81, align 8
  %82 = load %struct.student*, %struct.student** %6, align 8
  store %struct.student* %82, %struct.student** %7, align 8
  %83 = load i32, i32* @num, align 4
  %84 = add nsw i32 %83, 1
  store i32 %84, i32* @num, align 4
  br label %31

85:                                               ; preds = %49, %31
  %86 = load %struct.student*, %struct.student** %10, align 8
  store %struct.student* %86, %struct.student** %6, align 8
  store i32 0, i32* %1, align 4
  br label %87

87:                                               ; preds = %116, %85
  %88 = load i32, i32* %1, align 4
  %89 = load i32, i32* @num, align 4
  %90 = icmp slt i32 %88, %89
  br i1 %90, label %91, label %119

91:                                               ; preds = %87
  %92 = load %struct.student*, %struct.student** %6, align 8
  %93 = getelementptr inbounds %struct.student, %struct.student* %92, i32 0, i32 0
  %94 = getelementptr inbounds [100 x i8], [100 x i8]* %93, i64 0, i64 0
  %95 = load %struct.student*, %struct.student** %6, align 8
  %96 = getelementptr inbounds %struct.student, %struct.student* %95, i32 0, i32 1
  %97 = getelementptr inbounds [100 x i8], [100 x i8]* %96, i64 0, i64 0
  %98 = load %struct.student*, %struct.student** %6, align 8
  %99 = getelementptr inbounds %struct.student, %struct.student* %98, i32 0, i32 2
  %100 = load i8, i8* %99, align 8
  %101 = sext i8 %100 to i32
  %102 = load %struct.student*, %struct.student** %6, align 8
  %103 = getelementptr inbounds %struct.student, %struct.student* %102, i32 0, i32 3
  %104 = load i32, i32* %103, align 4
  %105 = load %struct.student*, %struct.student** %6, align 8
  %106 = getelementptr inbounds %struct.student, %struct.student* %105, i32 0, i32 4
  %107 = load float, float* %106, align 8
  %108 = fpext float %107 to double
  %109 = load %struct.student*, %struct.student** %6, align 8
  %110 = getelementptr inbounds %struct.student, %struct.student* %109, i32 0, i32 5
  %111 = getelementptr inbounds [100 x i8], [100 x i8]* %110, i64 0, i64 0
  %112 = call i32 (i8*, ...) @printf(i8* getelementptr inbounds ([19 x i8], [19 x i8]* @.str.4, i64 0, i64 0), i8* %94, i8* %97, i32 %101, i32 %104, double %108, i8* %111)
  %113 = load %struct.student*, %struct.student** %6, align 8
  %114 = getelementptr inbounds %struct.student, %struct.student* %113, i32 0, i32 7
  %115 = load %struct.student*, %struct.student** %114, align 8
  store %struct.student* %115, %struct.student** %6, align 8
  br label %116

116:                                              ; preds = %91
  %117 = load i32, i32* %1, align 4
  %118 = add nsw i32 %117, 1
  store i32 %118, i32* %1, align 4
  br label %87

119:                                              ; preds = %87
  ret void
}

; Function Attrs: nounwind
declare dso_local noalias i8* @malloc(i64) #1

declare dso_local i32 @__isoc99_scanf(i8*, ...) #2

; Function Attrs: nounwind readonly
declare dso_local i32 @strcmp(i8*, i8*) #3

declare dso_local i32 @printf(i8*, ...) #2


!llvm.module.flags = !{!0}
!llvm.ident = !{!1}

!0 = !{i32 1, !"wchar_size", i32 4}
!1 = !{!"clang version 10.0.0-4ubuntu1 "}
