; ModuleID = 'source-C-CXX/30/1670.c'
source_filename = "source-C-CXX/30/1670.c"
target datalayout = "e-m:e-p270:32:32-p271:32:32-p272:64:64-i64:64-f80:128-n8:16:32:64-S128"
target triple = "x86_64-pc-linux-gnu"

%struct.student = type { [100 x i8], [100 x i8], i8, i32, float, [100 x i8], %struct.student*, %struct.student* }

@num = dso_local local_unnamed_addr global i32 0, align 4
@.str = private unnamed_addr constant [18 x i8] c"%s %s %c %d %f %s\00", align 1
@.str.1 = private unnamed_addr constant [4 x i8] c"end\00", align 1
@.str.2 = private unnamed_addr constant [3 x i8] c"%s\00", align 1
@.str.3 = private unnamed_addr constant [15 x i8] c"%s %c %d %f %s\00", align 1
@.str.4 = private unnamed_addr constant [19 x i8] c"%s %s %c %d %g %s\0A\00", align 1

; Function Attrs: nofree nounwind sspstrong uwtable
define dso_local void @main() local_unnamed_addr #0 {
  %1 = tail call noalias align 16 dereferenceable_or_null(328) i8* @malloc(i64 328) #4
  %2 = bitcast i8* %1 to %struct.student*
  %3 = getelementptr inbounds %struct.student, %struct.student* %2, i64 0, i32 0, i64 0
  %4 = getelementptr inbounds %struct.student, %struct.student* %2, i64 0, i32 1, i64 0
  %5 = getelementptr inbounds %struct.student, %struct.student* %2, i64 0, i32 2
  %6 = getelementptr inbounds %struct.student, %struct.student* %2, i64 0, i32 3
  %7 = getelementptr inbounds %struct.student, %struct.student* %2, i64 0, i32 4
  %8 = getelementptr inbounds %struct.student, %struct.student* %2, i64 0, i32 5, i64 0
  %9 = tail call i32 (i8*, ...) @__isoc99_scanf(i8* getelementptr inbounds ([18 x i8], [18 x i8]* @.str, i64 0, i64 0), i8* %3, i8* nonnull %4, i8* nonnull %5, i32* nonnull %6, float* nonnull %7, i8* nonnull %8)
  %10 = getelementptr inbounds %struct.student, %struct.student* %2, i64 0, i32 7
  store %struct.student* null, %struct.student** %10, align 16, !tbaa !5
  %11 = tail call i32 @strcmp(i8* noundef nonnull dereferenceable(1) %3, i8* noundef nonnull dereferenceable(4) getelementptr inbounds ([4 x i8], [4 x i8]* @.str.1, i64 0, i64 0)) #5
  %12 = icmp eq i32 %11, 0
  br i1 %12, label %13, label %15

13:                                               ; preds = %0
  %14 = load i32, i32* @num, align 4, !tbaa !12
  br label %47

15:                                               ; preds = %0, %31
  %16 = phi %struct.student* [ %18, %31 ], [ %2, %0 ]
  %17 = tail call noalias align 16 dereferenceable_or_null(328) i8* @malloc(i64 328) #4
  %18 = bitcast i8* %17 to %struct.student*
  %19 = getelementptr inbounds %struct.student, %struct.student* %18, i64 0, i32 0, i64 0
  %20 = tail call i32 (i8*, ...) @__isoc99_scanf(i8* getelementptr inbounds ([3 x i8], [3 x i8]* @.str.2, i64 0, i64 0), i8* %19)
  %21 = tail call i32 @strcmp(i8* noundef nonnull dereferenceable(1) %19, i8* noundef nonnull dereferenceable(4) getelementptr inbounds ([4 x i8], [4 x i8]* @.str.1, i64 0, i64 0)) #5
  %22 = icmp eq i32 %21, 0
  br i1 %22, label %23, label %31

23:                                               ; preds = %15
  %24 = bitcast i8* %17 to %struct.student*
  %25 = getelementptr inbounds %struct.student, %struct.student* %24, i64 0, i32 7
  store %struct.student* %16, %struct.student** %25, align 16, !tbaa !5
  %26 = getelementptr inbounds %struct.student, %struct.student* %16, i64 0, i32 6
  %27 = bitcast %struct.student** %26 to i8**
  store i8* %17, i8** %27, align 8, !tbaa !13
  %28 = load i32, i32* @num, align 4, !tbaa !12
  %29 = add nsw i32 %28, 1
  store i32 %29, i32* @num, align 4, !tbaa !12
  %30 = getelementptr inbounds %struct.student, %struct.student* %24, i64 0, i32 6
  store %struct.student* null, %struct.student** %30, align 8, !tbaa !13
  br label %47

31:                                               ; preds = %15
  %32 = getelementptr inbounds %struct.student, %struct.student* %18, i64 0, i32 1, i64 0
  %33 = getelementptr inbounds %struct.student, %struct.student* %18, i64 0, i32 2
  %34 = getelementptr inbounds %struct.student, %struct.student* %18, i64 0, i32 3
  %35 = getelementptr inbounds %struct.student, %struct.student* %18, i64 0, i32 4
  %36 = getelementptr inbounds %struct.student, %struct.student* %18, i64 0, i32 5, i64 0
  %37 = tail call i32 (i8*, ...) @__isoc99_scanf(i8* getelementptr inbounds ([15 x i8], [15 x i8]* @.str.3, i64 0, i64 0), i8* nonnull %32, i8* nonnull %33, i32* nonnull %34, float* nonnull %35, i8* nonnull %36)
  %38 = getelementptr inbounds %struct.student, %struct.student* %18, i64 0, i32 7
  store %struct.student* %16, %struct.student** %38, align 16, !tbaa !5
  %39 = getelementptr inbounds %struct.student, %struct.student* %16, i64 0, i32 6
  %40 = bitcast %struct.student** %39 to i8**
  store i8* %17, i8** %40, align 8, !tbaa !13
  %41 = load i32, i32* @num, align 4, !tbaa !12
  %42 = add nsw i32 %41, 1
  store i32 %42, i32* @num, align 4, !tbaa !12
  %43 = tail call i32 @strcmp(i8* noundef nonnull dereferenceable(1) %19, i8* noundef nonnull dereferenceable(4) getelementptr inbounds ([4 x i8], [4 x i8]* @.str.1, i64 0, i64 0)) #5
  %44 = icmp eq i32 %43, 0
  br i1 %44, label %45, label %15, !llvm.loop !14

45:                                               ; preds = %31
  %46 = bitcast i8* %17 to %struct.student*
  br label %47

47:                                               ; preds = %45, %13, %23
  %48 = phi i32 [ %29, %23 ], [ %14, %13 ], [ %42, %45 ]
  %49 = phi %struct.student* [ %16, %23 ], [ %2, %13 ], [ %46, %45 ]
  %50 = icmp sgt i32 %48, 0
  br i1 %50, label %51, label %71

51:                                               ; preds = %47, %51
  %52 = phi i32 [ %68, %51 ], [ 0, %47 ]
  %53 = phi %struct.student* [ %67, %51 ], [ %49, %47 ]
  %54 = getelementptr inbounds %struct.student, %struct.student* %53, i64 0, i32 0, i64 0
  %55 = getelementptr inbounds %struct.student, %struct.student* %53, i64 0, i32 1, i64 0
  %56 = getelementptr inbounds %struct.student, %struct.student* %53, i64 0, i32 2
  %57 = load i8, i8* %56, align 8, !tbaa !16
  %58 = sext i8 %57 to i32
  %59 = getelementptr inbounds %struct.student, %struct.student* %53, i64 0, i32 3
  %60 = load i32, i32* %59, align 4, !tbaa !17
  %61 = getelementptr inbounds %struct.student, %struct.student* %53, i64 0, i32 4
  %62 = load float, float* %61, align 8, !tbaa !18
  %63 = fpext float %62 to double
  %64 = getelementptr inbounds %struct.student, %struct.student* %53, i64 0, i32 5, i64 0
  %65 = tail call i32 (i8*, ...) @printf(i8* nonnull dereferenceable(1) getelementptr inbounds ([19 x i8], [19 x i8]* @.str.4, i64 0, i64 0), i8* %54, i8* nonnull %55, i32 %58, i32 %60, double %63, i8* nonnull %64)
  %66 = getelementptr inbounds %struct.student, %struct.student* %53, i64 0, i32 7
  %67 = load %struct.student*, %struct.student** %66, align 8, !tbaa !5
  %68 = add nuw nsw i32 %52, 1
  %69 = load i32, i32* @num, align 4, !tbaa !12
  %70 = icmp slt i32 %68, %69
  br i1 %70, label %51, label %71, !llvm.loop !19

71:                                               ; preds = %51, %47
  ret void
}

; Function Attrs: inaccessiblememonly mustprogress nofree nounwind willreturn
declare noalias noundef align 16 i8* @malloc(i64 noundef) local_unnamed_addr #1

; Function Attrs: nofree nounwind
declare noundef i32 @__isoc99_scanf(i8* nocapture noundef readonly, ...) local_unnamed_addr #2

; Function Attrs: argmemonly mustprogress nofree nounwind readonly willreturn
declare i32 @strcmp(i8* nocapture, i8* nocapture) local_unnamed_addr #3

; Function Attrs: nofree nounwind
declare noundef i32 @printf(i8* nocapture noundef readonly, ...) local_unnamed_addr #2


!llvm.module.flags = !{!0, !1, !2, !3}
!llvm.ident = !{!4}

!0 = !{i32 1, !"wchar_size", i32 4}
!1 = !{i32 7, !"PIC Level", i32 2}
!2 = !{i32 7, !"PIE Level", i32 2}
!3 = !{i32 7, !"uwtable", i32 1}
!4 = !{!"clang version 13.0.0"}
!5 = !{!6, !11, i64 320}
!6 = !{!"student", !7, i64 0, !7, i64 100, !7, i64 200, !9, i64 204, !10, i64 208, !7, i64 212, !11, i64 312, !11, i64 320}
!7 = !{!"omnipotent char", !8, i64 0}
!8 = !{!"Simple C/C++ TBAA"}
!9 = !{!"int", !7, i64 0}
!10 = !{!"float", !7, i64 0}
!11 = !{!"any pointer", !7, i64 0}
!12 = !{!9, !9, i64 0}
!13 = !{!6, !11, i64 312}
!14 = distinct !{!14, !15}
!15 = !{!"llvm.loop.mustprogress"}
!16 = !{!6, !7, i64 200}
!17 = !{!6, !9, i64 204}
!18 = !{!6, !10, i64 208}
!19 = distinct !{!19, !15}
